; Function Attrs: mustprogress uwtable
define internal void @_ZN32pxrInternal_v0_24__pxrReserved__12_GLOBAL__N_125_LazyDomeOffsetDataSource8GetValueEf(ptr dead_on_unwind noalias nocapture writable writeonly sret(%"class.pxrInternal_v0_24__pxrReserved__::VtValue") align 8 %0, ptr noundef nonnull align 8 dereferenceable(40) %1, float noundef %2) unnamed_addr #0 align 2 personality ptr @__gxx_personality_v0 {
  %4 = alloca %"class.pxrInternal_v0_24__pxrReserved__::GfMatrix4d", align 8
  %5 = load ptr, ptr %1, align 8
  %6 = getelementptr inbounds i8, ptr %5, i64 32
  %7 = load ptr, ptr %6, align 8
  call void %7(ptr dead_on_unwind nonnull writable sret(%"class.pxrInternal_v0_24__pxrReserved__::GfMatrix4d") align 8 %4, ptr noundef nonnull align 8 dereferenceable(40) %1, float noundef %2)
  %8 = getelementptr inbounds nuw i8, ptr %0, i64 8
  %9 = or disjoint i64 2, ptrtoint (ptr @_ZZN32pxrInternal_v0_24__pxrReserved__7VtValue11GetTypeInfoINS_10GfMatrix4dEEENS_16TfPointerAndBitsIKNS0_9_TypeInfoEEEvE2ti to i64)
  %10 = inttoptr i64 %9 to ptr
  store ptr %10, ptr %8, align 8
  %11 = call noalias noundef nonnull dereferenceable(136) ptr @_Znwm(i64 noundef 136) #20
  call void @llvm.memcpy.p0.p0.i64(ptr noundef nonnull align 8 dereferenceable(128) %11, ptr noundef nonnull align 8 dereferenceable(128) %4, i64 128, i1 false)
  %12 = getelementptr inbounds nuw i8, ptr %11, i64 128
  store atomic i32 0, ptr %12 seq_cst, align 4
  store ptr %11, ptr %0, align 8
  %13 = atomicrmw add ptr %12, i32 1 monotonic, align 4
  ret void
}